; Function Attrs: nounwind uwtable
define dso_local noundef i32 @access_or_warn(ptr noundef %0, i32 noundef %1, i32 noundef %2) local_unnamed_addr #0 {
  %4 = tail call i32 @access(ptr noundef %0, i32 noundef %1) #20
  %.not = icmp eq i32 %4, 0
  br i1 %.not, label %access_error_is_ok.exit.thread, label %5

5:                                                ; preds = %3
  %6 = tail call ptr @__errno_location() #26
  %7 = load i32, ptr %6, align 4, !tbaa !9
  switch i32 %7, label %access_error_is_ok.exit [
    i32 20, label %access_error_is_ok.exit.thread
    i32 2, label %access_error_is_ok.exit.thread
  ]

access_error_is_ok.exit:                          ; preds = %5
  %8 = and i32 %2, 1
  %9 = icmp eq i32 %8, 0
  %10 = icmp ne i32 %7, 13
  %.not9 = or i1 %9, %10
  br i1 %.not9, label %11, label %access_error_is_ok.exit.thread

11:                                               ; preds = %access_error_is_ok.exit
  %12 = load i32, ptr @git_gettext_enabled, align 4, !tbaa !9
  %.not4.i.i = icmp eq i32 %12, 0
  br i1 %.not4.i.i, label %warn_on_inaccessible.exit, label %13

13:                                               ; preds = %11
  %14 = tail call ptr @dcgettext(ptr noundef null, ptr noundef nonnull @.str.20, i32 noundef 5) #20
  br label %warn_on_inaccessible.exit

warn_on_inaccessible.exit:                        ; preds = %11, %13
  %.0.i.i = phi ptr [ %14, %13 ], [ @.str.20, %11 ]
  tail call void (ptr, ...) @warning_errno(ptr noundef %.0.i.i, ptr noundef %0) #20
  br label %access_error_is_ok.exit.thread

access_error_is_ok.exit.thread:                   ; preds = %5, %5, %warn_on_inaccessible.exit, %access_error_is_ok.exit, %3
  ret i32 %4
}